; Function Attrs: nounwind uwtable
define zeroext range(i8 0, 2) i8 @l_Std_DHashMap_Internal_AssocList_contains___at_Lean_Elab_Tactic_GuardMsgs_elabGuardMsgs___spec__29(ptr noundef readnone captures(none) %0, ptr noundef readnone captures(none) %1, ptr noundef %2, ptr noundef %3) local_unnamed_addr #0 {
  %5 = getelementptr i8, ptr %2, i64 8
  br label %.critedge

.critedge:                                        ; preds = %.critedge.backedge, %4
  %.011 = phi ptr [ %3, %4 ], [ %19, %.critedge.backedge ]
  %6 = ptrtoint ptr %.011 to i64
  %7 = and i64 %6, 1
  %.not.i = icmp eq i64 %7, 0
  br i1 %.not.i, label %11, label %8

8:                                                ; preds = %.critedge
  %9 = lshr i64 %6, 1
  %10 = trunc i64 %9 to i32
  br label %lean_obj_tag.exit

11:                                               ; preds = %.critedge
  %12 = getelementptr i8, ptr %.011, i64 4
  %.val.i = load i32, ptr %12, align 4
  %13 = lshr i32 %.val.i, 24
  br label %lean_obj_tag.exit

lean_obj_tag.exit:                                ; preds = %8, %11
  %.0.i = phi i32 [ %10, %8 ], [ %13, %11 ]
  %14 = icmp eq i32 %.0.i, 0
  br i1 %14, label %lean_string_dec_eq.exit.thread, label %15

15:                                               ; preds = %lean_obj_tag.exit
  %16 = getelementptr inbounds nuw i8, ptr %.011, i64 8
  %17 = load ptr, ptr %16, align 8, !tbaa !4
  %18 = getelementptr inbounds nuw i8, ptr %.011, i64 24
  %19 = load ptr, ptr %18, align 8, !tbaa !4
  %20 = icmp eq ptr %17, %2
  br i1 %20, label %lean_string_dec_eq.exit.thread, label %21

21:                                               ; preds = %15
  %22 = getelementptr i8, ptr %17, i64 8
  %.val.i.i = load i64, ptr %22, align 8, !tbaa !11
  %.val7.i.i = load i64, ptr %5, align 8, !tbaa !11
  %23 = icmp eq i64 %.val.i.i, %.val7.i.i
  br i1 %23, label %lean_string_dec_eq.exit, label %.critedge.backedge

lean_string_dec_eq.exit:                          ; preds = %21
  %24 = tail call zeroext i1 @lean_string_eq_cold(ptr noundef nonnull %17, ptr noundef nonnull %2) #7
  br i1 %24, label %lean_string_dec_eq.exit.thread, label %.critedge.backedge

.critedge.backedge:                               ; preds = %lean_string_dec_eq.exit, %21
  br label %.critedge

lean_string_dec_eq.exit.thread:                   ; preds = %15, %lean_string_dec_eq.exit, %lean_obj_tag.exit
  %.1 = phi i8 [ 1, %lean_string_dec_eq.exit ], [ 0, %lean_obj_tag.exit ], [ 1, %15 ]
  ret i8 %.1
}